target datalayout = "e-m:e-p270:32:32-p271:32:32-p272:64:64-i64:64-i128:128-f80:128-n8:16:32:64-S128"
target triple = "x86_64-unknown-linux-gnu"

%"class.node::quic::StatelessResetToken" = type { %"class.node::MemoryRetainer", ptr, [16 x i8] }
%"class.node::MemoryRetainer" = type { ptr }

; Function Attrs: mustprogress nounwind uwtable
define dso_local noundef zeroext i1 @_ZNK4node4quic19StatelessResetTokencvbEv(ptr noundef nonnull align 8 dereferenceable(32) %this) #4 align 2 {
entry:
  %this.addr = alloca ptr, align 8
  store ptr %this, ptr %this.addr, align 8
  %this1 = load ptr, ptr %this.addr, align 8
  %ptr_ = getelementptr inbounds %"class.node::quic::StatelessResetToken", ptr %this1, i32 0, i32 1
  %0 = load ptr, ptr %ptr_, align 8
  %cmp = icmp ne ptr %0, null
  ret i1 %cmp
}

; Function Attrs: mustprogress nounwind uwtable
define linkonce_odr dso_local void @_ZN4node14MemoryRetainerC2Ev(ptr noundef nonnull align 8 dereferenceable(8) %this) unnamed_addr #4 comdat align 2 {
entry:
  %this.addr = alloca ptr, align 8
  store ptr %this, ptr %this.addr, align 8
  %this1 = load ptr, ptr %this.addr, align 8
  store ptr getelementptr inbounds ({ [10 x ptr] }, ptr @_ZTVN4node14MemoryRetainerE, i32 0, i32 0, i32 2), ptr %this1, align 8
  ret void
}

; Function Attrs: mustprogress nounwind uwtable
define dso_local void @_ZN4node4quic19StatelessResetTokenC2ERKS1_(ptr noundef nonnull align 8 dereferenceable(32) %this, ptr noundef nonnull align 8 dereferenceable(32) %other) unnamed_addr #4 align 2 {
entry:
  %this.addr = alloca ptr, align 8
  %other.addr = alloca ptr, align 8
  store ptr %this, ptr %this.addr, align 8
  store ptr %other, ptr %other.addr, align 8
  %this1 = load ptr, ptr %this.addr, align 8
  call void @_ZN4node14MemoryRetainerC2Ev(ptr noundef nonnull align 8 dereferenceable(8) %this1) #3
  store ptr getelementptr inbounds ({ [10 x ptr] }, ptr @_ZTVN4node4quic19StatelessResetTokenE, i32 0, i32 0, i32 2), ptr %this1, align 8
  %ptr_ = getelementptr inbounds %"class.node::quic::StatelessResetToken", ptr %this1, i32 0, i32 1
  %buf_ = getelementptr inbounds %"class.node::quic::StatelessResetToken", ptr %this1, i32 0, i32 2
  %arraydecay = getelementptr inbounds [16 x i8], ptr %buf_, i64 0, i64 0
  store ptr %arraydecay, ptr %ptr_, align 8
  %0 = load ptr, ptr %other.addr, align 8
  %call = call noundef zeroext i1 @_ZNK4node4quic19StatelessResetTokencvbEv(ptr noundef nonnull align 8 dereferenceable(32) %0)
  br i1 %call, label %if.then, label %if.else

if.then:                                          ; preds = %entry
  %buf_2 = getelementptr inbounds %"class.node::quic::StatelessResetToken", ptr %this1, i32 0, i32 2
  %arraydecay3 = getelementptr inbounds [16 x i8], ptr %buf_2, i64 0, i64 0
  %1 = load ptr, ptr %other.addr, align 8
  %ptr_4 = getelementptr inbounds %"class.node::quic::StatelessResetToken", ptr %1, i32 0, i32 1
  %2 = load ptr, ptr %ptr_4, align 8
  call void @llvm.memcpy.p0.p0.i64(ptr align 8 %arraydecay3, ptr align 1 %2, i64 16, i1 false)
  br label %if.end

if.else:                                          ; preds = %entry
  %ptr_5 = getelementptr inbounds %"class.node::quic::StatelessResetToken", ptr %this1, i32 0, i32 1
  store ptr null, ptr %ptr_5, align 8
  br label %if.end

if.end:                                           ; preds = %if.else, %if.then
  ret void
}