; Function Attrs: mustprogress nofree norecurse nosync nounwind willreturn memory(readwrite, inaccessiblemem: none) uwtable
define dso_local void @_ZN4node4quic19StatelessResetTokenC2ERKS1_(ptr noundef nonnull align 8 dereferenceable(32) %this, ptr nocapture noundef nonnull readonly align 8 dereferenceable(32) %other) unnamed_addr #9 align 2 {
entry:
  store ptr getelementptr inbounds ({ [10 x ptr] }, ptr @_ZTVN4node4quic19StatelessResetTokenE, i64 0, i32 0, i64 2), ptr %this, align 8
  %ptr_ = getelementptr inbounds i8, ptr %this, i64 8
  %buf_ = getelementptr inbounds i8, ptr %this, i64 16
  store ptr %buf_, ptr %ptr_, align 8
  %ptr_.i = getelementptr inbounds i8, ptr %other, i64 8
  %0 = load ptr, ptr %ptr_.i, align 8
  %cmp.i.not = icmp eq ptr %0, null
  br i1 %cmp.i.not, label %if.else, label %if.then

if.then:                                          ; preds = %entry
  tail call void @llvm.memcpy.p0.p0.i64(ptr noundef nonnull align 8 dereferenceable(16) %buf_, ptr noundef nonnull align 1 dereferenceable(16) %0, i64 16, i1 false)
  br label %if.end

if.else:                                          ; preds = %entry
  store ptr null, ptr %ptr_, align 8
  br label %if.end

if.end:                                           ; preds = %if.else, %if.then
  ret void
}